target datalayout = "e-m:e-p270:32:32-p271:32:32-p272:64:64-i64:64-i128:128-f80:128-n8:16:32:64-S128"
target triple = "x86_64-pc-linux-gnu"

%struct._object = type { %union.anon, ptr }
%union.anon = type { i64 }
%struct._odictobject = type { %struct.PyDictObject, ptr, ptr, ptr, i64, ptr, i64, ptr, ptr }
%struct.PyDictObject = type { %struct._object, i64, i64, ptr, ptr }
%struct._odictnode = type { ptr, i64, ptr, ptr }
%struct.anon = type { i32, i32 }

@PyExc_KeyError = external global ptr, align 8

; Function Attrs: alwaysinline nounwind uwtable
define internal i32 @_Py_IsImmortal(ptr noundef %0) #4 {
  %2 = alloca ptr, align 8
  store ptr %0, ptr %2, align 8, !tbaa !42
  %3 = load ptr, ptr %2, align 8, !tbaa !42
  %4 = getelementptr inbounds nuw %struct._object, ptr %3, i32 0, i32 0
  %5 = getelementptr inbounds nuw %struct.anon, ptr %4, i32 0, i32 0
  %6 = load i32, ptr %5, align 8, !tbaa !74
  %7 = icmp slt i32 %6, 0
  %8 = zext i1 %7 to i32
  ret i32 %8
}

; Function Attrs: nounwind uwtable
define internal void @_odict_add_tail(ptr noundef %0, ptr noundef %1) #0 {
  %3 = alloca ptr, align 8
  %4 = alloca ptr, align 8
  store ptr %0, ptr %3, align 8, !tbaa !4
  store ptr %1, ptr %4, align 8, !tbaa !46
  %5 = load ptr, ptr %3, align 8, !tbaa !4
  %6 = getelementptr inbounds nuw %struct._odictobject, ptr %5, i32 0, i32 2
  %7 = load ptr, ptr %6, align 8, !tbaa !71
  %8 = load ptr, ptr %4, align 8, !tbaa !46
  %9 = getelementptr inbounds nuw %struct._odictnode, ptr %8, i32 0, i32 3
  store ptr %7, ptr %9, align 8, !tbaa !165
  %10 = load ptr, ptr %4, align 8, !tbaa !46
  %11 = getelementptr inbounds nuw %struct._odictnode, ptr %10, i32 0, i32 2
  store ptr null, ptr %11, align 8, !tbaa !49
  %12 = load ptr, ptr %3, align 8, !tbaa !4
  %13 = getelementptr inbounds nuw %struct._odictobject, ptr %12, i32 0, i32 2
  %14 = load ptr, ptr %13, align 8, !tbaa !71
  %15 = icmp eq ptr %14, null
  br i1 %15, label %16, label %20

16:                                               ; preds = %2
  %17 = load ptr, ptr %4, align 8, !tbaa !46
  %18 = load ptr, ptr %3, align 8, !tbaa !4
  %19 = getelementptr inbounds nuw %struct._odictobject, ptr %18, i32 0, i32 1
  store ptr %17, ptr %19, align 8, !tbaa !45
  br label %26

20:                                               ; preds = %2
  %21 = load ptr, ptr %4, align 8, !tbaa !46
  %22 = load ptr, ptr %3, align 8, !tbaa !4
  %23 = getelementptr inbounds nuw %struct._odictobject, ptr %22, i32 0, i32 2
  %24 = load ptr, ptr %23, align 8, !tbaa !71
  %25 = getelementptr inbounds nuw %struct._odictnode, ptr %24, i32 0, i32 2
  store ptr %21, ptr %25, align 8, !tbaa !49
  br label %26

26:                                               ; preds = %20, %16
  %27 = load ptr, ptr %4, align 8, !tbaa !46
  %28 = load ptr, ptr %3, align 8, !tbaa !4
  %29 = getelementptr inbounds nuw %struct._odictobject, ptr %28, i32 0, i32 2
  store ptr %27, ptr %29, align 8, !tbaa !71
  %30 = load ptr, ptr %3, align 8, !tbaa !4
  %31 = getelementptr inbounds nuw %struct._odictobject, ptr %30, i32 0, i32 6
  %32 = load i64, ptr %31, align 8, !tbaa !73
  %33 = add i64 %32, 1
  store i64 %33, ptr %31, align 8, !tbaa !73
  ret void
}

; Function Attrs: alwaysinline nounwind uwtable
define internal void @Py_DECREF(ptr noundef %0) #4 {
  %2 = alloca ptr, align 8
  store ptr %0, ptr %2, align 8, !tbaa !42
  %3 = load ptr, ptr %2, align 8, !tbaa !42
  %4 = call i32 @_Py_IsImmortal(ptr noundef %3)
  %5 = icmp ne i32 %4, 0
  br i1 %5, label %6, label %7

6:                                                ; preds = %1
  br label %16

7:                                                ; preds = %1
  %8 = load ptr, ptr %2, align 8, !tbaa !42
  %9 = getelementptr inbounds nuw %struct._object, ptr %8, i32 0, i32 0
  %10 = getelementptr inbounds nuw %struct.anon, ptr %9, i32 0, i32 0
  %11 = load i32, ptr %10, align 8, !tbaa !74
  %12 = add i32 %11, -1
  store i32 %12, ptr %10, align 8, !tbaa !74
  %13 = icmp eq i32 %12, 0
  br i1 %13, label %14, label %16

14:                                               ; preds = %7
  %15 = load ptr, ptr %2, align 8, !tbaa !42
  call void @_Py_Dealloc(ptr noundef %15)
  br label %16

16:                                               ; preds = %6, %14, %7
  ret void
}

; Function Attrs: alwaysinline nounwind uwtable
define internal void @Py_INCREF(ptr noundef %0) #4 {
  %2 = alloca ptr, align 8
  %3 = alloca i32, align 4
  %4 = alloca i32, align 4
  store ptr %0, ptr %2, align 8, !tbaa !42
  call void @llvm.lifetime.start.p0(i64 4, ptr %3) #7
  %5 = load ptr, ptr %2, align 8, !tbaa !42
  %6 = getelementptr inbounds nuw %struct._object, ptr %5, i32 0, i32 0
  %7 = getelementptr inbounds nuw %struct.anon, ptr %6, i32 0, i32 0
  %8 = load i32, ptr %7, align 8, !tbaa !74
  store i32 %8, ptr %3, align 4, !tbaa !43
  %9 = load i32, ptr %3, align 4, !tbaa !43
  %10 = icmp slt i32 %9, 0
  br i1 %10, label %11, label %12

11:                                               ; preds = %1
  store i32 1, ptr %4, align 4
  br label %18

12:                                               ; preds = %1
  %13 = load i32, ptr %3, align 4, !tbaa !43
  %14 = add i32 %13, 1
  %15 = load ptr, ptr %2, align 8, !tbaa !42
  %16 = getelementptr inbounds nuw %struct._object, ptr %15, i32 0, i32 0
  %17 = getelementptr inbounds nuw %struct.anon, ptr %16, i32 0, i32 0
  store i32 %14, ptr %17, align 8, !tbaa !74
  store i32 0, ptr %4, align 4
  br label %18

18:                                               ; preds = %12, %11
  call void @llvm.lifetime.end.p0(i64 4, ptr %3) #7
  %19 = load i32, ptr %4, align 4
  switch i32 %19, label %21 [
    i32 0, label %20
    i32 1, label %20
  ]

20:                                               ; preds = %18, %18
  ret void

21:                                               ; preds = %18
  unreachable
}

; Function Attrs: nounwind uwtable
define internal i32 @_odict_add_new_node(ptr noundef %0, ptr noundef %1, i64 noundef %2) #0 {
  %4 = alloca i32, align 4
  %5 = alloca ptr, align 8
  %6 = alloca ptr, align 8
  %7 = alloca i64, align 8
  %8 = alloca i64, align 8
  %9 = alloca ptr, align 8
  %10 = alloca i32, align 4
  store ptr %0, ptr %5, align 8, !tbaa !4
  store ptr %1, ptr %6, align 8, !tbaa !42
  store i64 %2, ptr %7, align 8, !tbaa !55
  call void @llvm.lifetime.start.p0(i64 8, ptr %8) #7
  call void @llvm.lifetime.start.p0(i64 8, ptr %9) #7
  %11 = load ptr, ptr %6, align 8, !tbaa !42
  call void @Py_INCREF(ptr noundef %11)
  %12 = load ptr, ptr %5, align 8, !tbaa !4
  %13 = load ptr, ptr %6, align 8, !tbaa !42
  %14 = load i64, ptr %7, align 8, !tbaa !55
  %15 = call i64 @_odict_get_index(ptr noundef %12, ptr noundef %13, i64 noundef %14)
  store i64 %15, ptr %8, align 8, !tbaa !55
  %16 = load i64, ptr %8, align 8, !tbaa !55
  %17 = icmp slt i64 %16, 0
  br i1 %17, label %18, label %26

18:                                               ; preds = %3
  %19 = call ptr @PyErr_Occurred()
  %20 = icmp ne ptr %19, null
  br i1 %20, label %24, label %21

21:                                               ; preds = %18
  %22 = load ptr, ptr @PyExc_KeyError, align 8, !tbaa !42
  %23 = load ptr, ptr %6, align 8, !tbaa !42
  call void @PyErr_SetObject(ptr noundef %22, ptr noundef %23)
  br label %24

24:                                               ; preds = %21, %18
  %25 = load ptr, ptr %6, align 8, !tbaa !42
  call void @Py_DECREF(ptr noundef %25)
  store i32 -1, ptr %4, align 4
  store i32 1, ptr %10, align 4
  br label %58

26:                                               ; preds = %3
  %27 = load ptr, ptr %5, align 8, !tbaa !4
  %28 = getelementptr inbounds nuw %struct._odictobject, ptr %27, i32 0, i32 3
  %29 = load ptr, ptr %28, align 8, !tbaa !58
  %30 = load i64, ptr %8, align 8, !tbaa !55
  %31 = getelementptr ptr, ptr %29, i64 %30
  %32 = load ptr, ptr %31, align 8, !tbaa !46
  %33 = icmp ne ptr %32, null
  br i1 %33, label %34, label %36

34:                                               ; preds = %26
  %35 = load ptr, ptr %6, align 8, !tbaa !42
  call void @Py_DECREF(ptr noundef %35)
  store i32 0, ptr %4, align 4
  store i32 1, ptr %10, align 4
  br label %58

36:                                               ; preds = %26
  %37 = call ptr @PyMem_Malloc(i64 noundef 32)
  store ptr %37, ptr %9, align 8, !tbaa !46
  %38 = load ptr, ptr %9, align 8, !tbaa !46
  %39 = icmp eq ptr %38, null
  br i1 %39, label %40, label %43

40:                                               ; preds = %36
  %41 = load ptr, ptr %6, align 8, !tbaa !42
  call void @Py_DECREF(ptr noundef %41)
  %42 = call ptr @PyErr_NoMemory()
  store i32 -1, ptr %4, align 4
  store i32 1, ptr %10, align 4
  br label %58

43:                                               ; preds = %36
  %44 = load ptr, ptr %6, align 8, !tbaa !42
  %45 = load ptr, ptr %9, align 8, !tbaa !46
  %46 = getelementptr inbounds nuw %struct._odictnode, ptr %45, i32 0, i32 0
  store ptr %44, ptr %46, align 8, !tbaa !47
  %47 = load i64, ptr %7, align 8, !tbaa !55
  %48 = load ptr, ptr %9, align 8, !tbaa !46
  %49 = getelementptr inbounds nuw %struct._odictnode, ptr %48, i32 0, i32 1
  store i64 %47, ptr %49, align 8, !tbaa !156
  %50 = load ptr, ptr %5, align 8, !tbaa !4
  %51 = load ptr, ptr %9, align 8, !tbaa !46
  call void @_odict_add_tail(ptr noundef %50, ptr noundef %51)
  %52 = load ptr, ptr %9, align 8, !tbaa !46
  %53 = load ptr, ptr %5, align 8, !tbaa !4
  %54 = getelementptr inbounds nuw %struct._odictobject, ptr %53, i32 0, i32 3
  %55 = load ptr, ptr %54, align 8, !tbaa !58
  %56 = load i64, ptr %8, align 8, !tbaa !55
  %57 = getelementptr ptr, ptr %55, i64 %56
  store ptr %52, ptr %57, align 8, !tbaa !46
  store i32 0, ptr %4, align 4
  store i32 1, ptr %10, align 4
  br label %58

58:                                               ; preds = %43, %40, %34, %24
  call void @llvm.lifetime.end.p0(i64 8, ptr %9) #7
  call void @llvm.lifetime.end.p0(i64 8, ptr %8) #7
  %59 = load i32, ptr %4, align 4
  ret i32 %59
}

; Function Attrs: nounwind uwtable
define internal i32 @_PyODict_SetItem_KnownHash(ptr noundef %0, ptr noundef %1, ptr noundef %2, i64 noundef %3) #0 {
  %5 = alloca ptr, align 8
  %6 = alloca ptr, align 8
  %7 = alloca ptr, align 8
  %8 = alloca i64, align 8
  %9 = alloca i32, align 4
  %10 = alloca ptr, align 8
  store ptr %0, ptr %5, align 8, !tbaa !42
  store ptr %1, ptr %6, align 8, !tbaa !42
  store ptr %2, ptr %7, align 8, !tbaa !42
  store i64 %3, ptr %8, align 8, !tbaa !55
  call void @llvm.lifetime.start.p0(i64 4, ptr %9) #7
  %11 = load ptr, ptr %5, align 8, !tbaa !42
  %12 = load ptr, ptr %6, align 8, !tbaa !42
  %13 = load ptr, ptr %7, align 8, !tbaa !42
  %14 = load i64, ptr %8, align 8, !tbaa !55
  %15 = call i32 @_PyDict_SetItem_KnownHash(ptr noundef %11, ptr noundef %12, ptr noundef %13, i64 noundef %14)
  store i32 %15, ptr %9, align 4, !tbaa !43
  %16 = load i32, ptr %9, align 4, !tbaa !43
  %17 = icmp eq i32 %16, 0
  br i1 %17, label %18, label %33

18:                                               ; preds = %4
  %19 = load ptr, ptr %5, align 8, !tbaa !42
  %20 = load ptr, ptr %6, align 8, !tbaa !42
  %21 = load i64, ptr %8, align 8, !tbaa !55
  %22 = call i32 @_odict_add_new_node(ptr noundef %19, ptr noundef %20, i64 noundef %21)
  store i32 %22, ptr %9, align 4, !tbaa !43
  %23 = load i32, ptr %9, align 4, !tbaa !43
  %24 = icmp slt i32 %23, 0
  br i1 %24, label %25, label %32

25:                                               ; preds = %18
  call void @llvm.lifetime.start.p0(i64 8, ptr %10) #7
  %26 = call ptr @PyErr_GetRaisedException()
  store ptr %26, ptr %10, align 8, !tbaa !42
  %27 = load ptr, ptr %5, align 8, !tbaa !42
  %28 = load ptr, ptr %6, align 8, !tbaa !42
  %29 = load i64, ptr %8, align 8, !tbaa !55
  %30 = call i32 @_PyDict_DelItem_KnownHash(ptr noundef %27, ptr noundef %28, i64 noundef %29)
  %31 = load ptr, ptr %10, align 8, !tbaa !42
  call void @_PyErr_ChainExceptions1(ptr noundef %31)
  call void @llvm.lifetime.end.p0(i64 8, ptr %10) #7
  br label %32

32:                                               ; preds = %25, %18
  br label %33

33:                                               ; preds = %32, %4
  %34 = load i32, ptr %9, align 4, !tbaa !43
  call void @llvm.lifetime.end.p0(i64 4, ptr %9) #7
  ret i32 %34
}