; Function Attrs: nounwind uwtable
define internal fastcc i32 @_PyODict_SetItem_KnownHash(ptr noundef %0, ptr noundef %1, ptr noundef %2, i64 noundef %3) unnamed_addr #0 {
  %5 = tail call i32 @_PyDict_SetItem_KnownHash(ptr noundef %0, ptr noundef %1, ptr noundef %2, i64 noundef %3) #8
  %6 = icmp eq i32 %5, 0
  br i1 %6, label %7, label %_odict_add_new_node.exit

7:                                                ; preds = %4
  %8 = load i32, ptr %1, align 8, !tbaa !38
  %9 = icmp slt i32 %8, 0
  br i1 %9, label %Py_INCREF.exit.i, label %10

10:                                               ; preds = %7
  %11 = add nuw i32 %8, 1
  store i32 %11, ptr %1, align 8, !tbaa !38
  br label %Py_INCREF.exit.i

Py_INCREF.exit.i:                                 ; preds = %10, %7
  %12 = tail call fastcc i64 @_odict_get_index(ptr noundef %0, ptr noundef nonnull %1, i64 noundef %3)
  %13 = icmp slt i64 %12, 0
  br i1 %13, label %14, label %24

14:                                               ; preds = %Py_INCREF.exit.i
  %15 = tail call ptr @PyErr_Occurred() #8
  %.not23.i = icmp eq ptr %15, null
  br i1 %.not23.i, label %16, label %18

16:                                               ; preds = %14
  %17 = load ptr, ptr @PyExc_KeyError, align 8, !tbaa !53
  tail call void @PyErr_SetObject(ptr noundef %17, ptr noundef nonnull %1) #8
  br label %18

18:                                               ; preds = %16, %14
  %19 = load i32, ptr %1, align 8, !tbaa !38
  %.not.i26.i = icmp sgt i32 %19, -1
  br i1 %.not.i26.i, label %20, label %61

20:                                               ; preds = %18
  %21 = add nsw i32 %19, -1
  store i32 %21, ptr %1, align 8, !tbaa !38
  %22 = icmp eq i32 %21, 0
  br i1 %22, label %23, label %61

23:                                               ; preds = %20
  tail call void @_Py_Dealloc(ptr noundef nonnull %1) #8
  br label %61

24:                                               ; preds = %Py_INCREF.exit.i
  %25 = getelementptr inbounds nuw i8, ptr %0, i64 64
  %26 = load ptr, ptr %25, align 8, !tbaa !40
  %27 = getelementptr ptr, ptr %26, i64 %12
  %28 = load ptr, ptr %27, align 8, !tbaa !50
  %.not.i = icmp eq ptr %28, null
  br i1 %.not.i, label %35, label %29

29:                                               ; preds = %24
  %30 = load i32, ptr %1, align 8, !tbaa !38
  %.not.i24.i = icmp sgt i32 %30, -1
  br i1 %.not.i24.i, label %31, label %_odict_add_new_node.exit

31:                                               ; preds = %29
  %32 = add nsw i32 %30, -1
  store i32 %32, ptr %1, align 8, !tbaa !38
  %33 = icmp eq i32 %32, 0
  br i1 %33, label %34, label %_odict_add_new_node.exit

34:                                               ; preds = %31
  tail call void @_Py_Dealloc(ptr noundef nonnull %1) #8
  br label %_odict_add_new_node.exit

35:                                               ; preds = %24
  %36 = tail call ptr @PyMem_Malloc(i64 noundef 32) #8
  %37 = icmp eq ptr %36, null
  br i1 %37, label %38, label %45

38:                                               ; preds = %35
  %39 = load i32, ptr %1, align 8, !tbaa !38
  %.not.i.i = icmp sgt i32 %39, -1
  br i1 %.not.i.i, label %40, label %Py_DECREF.exit.i

40:                                               ; preds = %38
  %41 = add nsw i32 %39, -1
  store i32 %41, ptr %1, align 8, !tbaa !38
  %42 = icmp eq i32 %41, 0
  br i1 %42, label %43, label %Py_DECREF.exit.i

43:                                               ; preds = %40
  tail call void @_Py_Dealloc(ptr noundef nonnull %1) #8
  br label %Py_DECREF.exit.i

Py_DECREF.exit.i:                                 ; preds = %43, %40, %38
  %44 = tail call ptr @PyErr_NoMemory() #8
  br label %61

45:                                               ; preds = %35
  store ptr %1, ptr %36, align 8, !tbaa !44
  %46 = getelementptr inbounds nuw i8, ptr %36, i64 8
  store i64 %3, ptr %46, align 8, !tbaa !138
  %47 = getelementptr inbounds nuw i8, ptr %0, i64 56
  %48 = load ptr, ptr %47, align 8, !tbaa !139
  %49 = getelementptr inbounds nuw i8, ptr %36, i64 24
  store ptr %48, ptr %49, align 8, !tbaa !140
  %50 = getelementptr inbounds nuw i8, ptr %36, i64 16
  store ptr null, ptr %50, align 8, !tbaa !42
  %51 = icmp eq ptr %48, null
  br i1 %51, label %52, label %54

52:                                               ; preds = %45
  %53 = getelementptr inbounds nuw i8, ptr %0, i64 48
  store ptr %36, ptr %53, align 8, !tbaa !41
  br label %_odict_add_tail.exit.i

54:                                               ; preds = %45
  %55 = getelementptr inbounds nuw i8, ptr %48, i64 16
  store ptr %36, ptr %55, align 8, !tbaa !42
  br label %_odict_add_tail.exit.i

_odict_add_tail.exit.i:                           ; preds = %54, %52
  store ptr %36, ptr %47, align 8, !tbaa !139
  %56 = getelementptr inbounds nuw i8, ptr %0, i64 88
  %57 = load i64, ptr %56, align 8, !tbaa !47
  %58 = add i64 %57, 1
  store i64 %58, ptr %56, align 8, !tbaa !47
  %59 = load ptr, ptr %25, align 8, !tbaa !40
  %60 = getelementptr ptr, ptr %59, i64 %12
  store ptr %36, ptr %60, align 8, !tbaa !50
  br label %_odict_add_new_node.exit

61:                                               ; preds = %Py_DECREF.exit.i, %18, %20, %23
  %62 = tail call ptr @PyErr_GetRaisedException() #8
  %63 = tail call i32 @_PyDict_DelItem_KnownHash(ptr noundef %0, ptr noundef nonnull %1, i64 noundef %3) #8
  tail call void @_PyErr_ChainExceptions1(ptr noundef %62) #8
  br label %_odict_add_new_node.exit

_odict_add_new_node.exit:                         ; preds = %_odict_add_tail.exit.i, %34, %31, %29, %61, %4
  %.0 = phi i32 [ -1, %61 ], [ %5, %4 ], [ 0, %_odict_add_tail.exit.i ], [ 0, %29 ], [ 0, %31 ], [ 0, %34 ]
  ret i32 %.0
}